target datalayout = "e-m:e-p270:32:32-p271:32:32-p272:64:64-i64:64-i128:128-f80:128-n8:16:32:64-S128"
target triple = "x86_64-pc-linux-gnu"

%struct.xcgroup_t = type { ptr, ptr, ptr, i32, i32, i32 }
%struct.slurm_conf_t = type { i64, ptr, i16, ptr, ptr, ptr, ptr, ptr, i16, ptr, ptr, ptr, ptr, ptr, ptr, ptr, i16, ptr, ptr, ptr, ptr, i16, ptr, ptr, ptr, i64, ptr, ptr, ptr, ptr, i16, ptr, ptr, i16, i32, ptr, i32, ptr, i32, i32, ptr, ptr, i64, i64, ptr, i16, i16, ptr, i32, i32, ptr, i32, ptr, i32, i16, i16, i16, ptr, i16, i16, ptr, ptr, i32, i16, i16, ptr, i32, i16, ptr, ptr, ptr, ptr, i16, ptr, ptr, ptr, ptr, i32, ptr, ptr, ptr, ptr, i16, i16, ptr, i32, i32, i32, i16, i16, ptr, ptr, i16, ptr, ptr, i32, i32, i32, i32, i32, i64, i32, i32, i16, ptr, ptr, i32, ptr, ptr, ptr, i16, i32, ptr, ptr, i16, ptr, ptr, i32, i16, ptr, ptr, ptr, ptr, i32, i32, i16, i16, i32, ptr, i16, ptr, i32, i32, i32, i32, i32, i32, ptr, i16, ptr, ptr, i32, i16, ptr, i32, i16, i16, ptr, ptr, ptr, i16, ptr, ptr, ptr, ptr, i16, i16, ptr, i16, ptr, i16, ptr, i16, ptr, i16, ptr, ptr, ptr, ptr, i16, ptr, ptr, ptr, i32, ptr, i32, ptr, ptr, i16, ptr, ptr, i32, i16, ptr, ptr, i16, i16, ptr, i16, ptr, ptr, ptr, i32, ptr, i16, i16, ptr, ptr, ptr, ptr, ptr, ptr, ptr, ptr, i16, i32, i16, ptr, ptr, ptr, ptr, i32, ptr, ptr, ptr, i16, ptr, ptr, ptr, i16, ptr, i16, ptr, i16, i16, ptr }
%struct.cgroup_limits_t = type { ptr, i32, ptr, ptr, i64, i64, i8, %struct.gres_device_id_t, i64, i64, i64, i64 }
%struct.gres_device_id_t = type { i32, i32, i32 }

@plugin_type = dso_local constant [10 x i8] c"cgroup/v2\00", align 1
@int_cg = internal global [9 x %struct.xcgroup_t] zeroinitializer, align 16
@slurm_conf = external global %struct.slurm_conf_t, align 8
@.str.38 = private unnamed_addr constant [12 x i8] c"cpuset.cpus\00", align 1
@.str.39 = private unnamed_addr constant [12 x i8] c"cpuset.mems\00", align 1
@.str.48 = private unnamed_addr constant [35 x i8] c"cgroup controller %u not supported\00", align 1
@.str.52 = private unnamed_addr constant [27 x i8] c"Incorrect cgroup level: %d\00", align 1
@.str.53 = private unnamed_addr constant [12 x i8] c"cgroup_v2.c\00", align 1
@__func__.cgroup_p_constrain_get = private unnamed_addr constant [23 x i8] c"cgroup_p_constrain_get\00", align 1
@.str.54 = private unnamed_addr constant [2 x i8] c"\0A\00", align 1
@.str.55 = private unnamed_addr constant [22 x i8] c"cpuset.cpus.effective\00", align 1
@.str.56 = private unnamed_addr constant [22 x i8] c"cpuset.mems.effective\00", align 1
@.str.57 = private unnamed_addr constant [64 x i8] c"%s: %s: CGROUP: Returning empty limits, this should not happen.\00", align 1

; Function Attrs: nounwind uwtable
define dso_local ptr @cgroup_p_constrain_get(i32 noundef %0, i32 noundef %1) #0 {
  %3 = alloca ptr, align 8
  %4 = alloca i32, align 4
  %5 = alloca i32, align 4
  %6 = alloca ptr, align 8
  %7 = alloca i32, align 4
  store i32 %0, ptr %4, align 4
  store i32 %1, ptr %5, align 4
  call void @llvm.lifetime.start.p0(i64 8, ptr %6) #10
  %8 = load i32, ptr %5, align 4
  %9 = icmp eq i32 %8, 2
  br i1 %9, label %10, label %13

10:                                               ; preds = %2
  %11 = load i32, ptr %5, align 4
  %12 = call i32 (ptr, ...) @error(ptr noundef @.str.52, i32 noundef %11)
  store ptr null, ptr %3, align 8
  store i32 1, ptr %7, align 4
  br label %155

13:                                               ; preds = %2
  %14 = load i32, ptr %5, align 4
  %15 = icmp eq i32 %14, 1
  br i1 %15, label %16, label %17

16:                                               ; preds = %13
  store i32 0, ptr %5, align 4
  br label %17

17:                                               ; preds = %16, %13
  %18 = load i32, ptr %5, align 4
  %19 = icmp eq i32 %18, 4
  br i1 %19, label %20, label %21

20:                                               ; preds = %17
  store i32 6, ptr %5, align 4
  br label %21

21:                                               ; preds = %20, %17
  %22 = load i32, ptr %5, align 4
  %23 = icmp eq i32 %22, 8
  br i1 %23, label %24, label %25

24:                                               ; preds = %21
  store i32 0, ptr %5, align 4
  br label %25

25:                                               ; preds = %24, %21
  %26 = call ptr @slurm_xcalloc(i64 noundef 1, i64 noundef 96, i1 noundef zeroext true, i1 noundef zeroext false, ptr noundef @.str.53, i32 noundef 2280, ptr noundef @__func__.cgroup_p_constrain_get)
  store ptr %26, ptr %6, align 8
  %27 = load ptr, ptr %6, align 8
  call void @cgroup_init_limits(ptr noundef %27)
  %28 = load i32, ptr %4, align 4
  switch i32 %28, label %133 [
    i32 0, label %29
    i32 1, label %30
    i32 2, label %131
    i32 3, label %132
  ]

29:                                               ; preds = %25
  br label %138

30:                                               ; preds = %25
  %31 = load i32, ptr %5, align 4
  %32 = zext i32 %31 to i64
  %33 = getelementptr inbounds nuw [9 x %struct.xcgroup_t], ptr @int_cg, i64 0, i64 %32
  %34 = load ptr, ptr %6, align 8
  %35 = getelementptr inbounds nuw %struct.cgroup_limits_t, ptr %34, i32 0, i32 2
  %36 = load ptr, ptr %6, align 8
  %37 = getelementptr inbounds nuw %struct.cgroup_limits_t, ptr %36, i32 0, i32 4
  %38 = call i32 @common_cgroup_get_param(ptr noundef %33, ptr noundef @.str.38, ptr noundef %35, ptr noundef %37)
  %39 = icmp ne i32 %38, 0
  br i1 %39, label %40, label %41

40:                                               ; preds = %30
  br label %138

41:                                               ; preds = %30
  %42 = load ptr, ptr %6, align 8
  %43 = getelementptr inbounds nuw %struct.cgroup_limits_t, ptr %42, i32 0, i32 4
  %44 = load i64, ptr %43, align 8
  %45 = icmp eq i64 %44, 1
  br i1 %45, label %46, label %66

46:                                               ; preds = %41
  %47 = load ptr, ptr %6, align 8
  %48 = getelementptr inbounds nuw %struct.cgroup_limits_t, ptr %47, i32 0, i32 2
  %49 = load ptr, ptr %48, align 8
  %50 = call i32 @xstrcmp(ptr noundef %49, ptr noundef @.str.54)
  %51 = icmp ne i32 %50, 0
  br i1 %51, label %66, label %52

52:                                               ; preds = %46
  %53 = load ptr, ptr %6, align 8
  %54 = getelementptr inbounds nuw %struct.cgroup_limits_t, ptr %53, i32 0, i32 2
  call void @slurm_xfree(ptr noundef %54)
  %55 = load i32, ptr %5, align 4
  %56 = zext i32 %55 to i64
  %57 = getelementptr inbounds nuw [9 x %struct.xcgroup_t], ptr @int_cg, i64 0, i64 %56
  %58 = load ptr, ptr %6, align 8
  %59 = getelementptr inbounds nuw %struct.cgroup_limits_t, ptr %58, i32 0, i32 2
  %60 = load ptr, ptr %6, align 8
  %61 = getelementptr inbounds nuw %struct.cgroup_limits_t, ptr %60, i32 0, i32 4
  %62 = call i32 @common_cgroup_get_param(ptr noundef %57, ptr noundef @.str.55, ptr noundef %59, ptr noundef %61)
  %63 = icmp ne i32 %62, 0
  br i1 %63, label %64, label %65

64:                                               ; preds = %52
  br label %138

65:                                               ; preds = %52
  br label %66

66:                                               ; preds = %65, %46, %41
  %67 = load i32, ptr %5, align 4
  %68 = zext i32 %67 to i64
  %69 = getelementptr inbounds nuw [9 x %struct.xcgroup_t], ptr @int_cg, i64 0, i64 %68
  %70 = load ptr, ptr %6, align 8
  %71 = getelementptr inbounds nuw %struct.cgroup_limits_t, ptr %70, i32 0, i32 3
  %72 = load ptr, ptr %6, align 8
  %73 = getelementptr inbounds nuw %struct.cgroup_limits_t, ptr %72, i32 0, i32 5
  %74 = call i32 @common_cgroup_get_param(ptr noundef %69, ptr noundef @.str.39, ptr noundef %71, ptr noundef %73)
  %75 = icmp ne i32 %74, 0
  br i1 %75, label %76, label %77

76:                                               ; preds = %66
  br label %138

77:                                               ; preds = %66
  %78 = load ptr, ptr %6, align 8
  %79 = getelementptr inbounds nuw %struct.cgroup_limits_t, ptr %78, i32 0, i32 5
  %80 = load i64, ptr %79, align 8
  %81 = icmp eq i64 %80, 1
  br i1 %81, label %82, label %102

82:                                               ; preds = %77
  %83 = load ptr, ptr %6, align 8
  %84 = getelementptr inbounds nuw %struct.cgroup_limits_t, ptr %83, i32 0, i32 3
  %85 = load ptr, ptr %84, align 8
  %86 = call i32 @xstrcmp(ptr noundef %85, ptr noundef @.str.54)
  %87 = icmp ne i32 %86, 0
  br i1 %87, label %102, label %88

88:                                               ; preds = %82
  %89 = load ptr, ptr %6, align 8
  %90 = getelementptr inbounds nuw %struct.cgroup_limits_t, ptr %89, i32 0, i32 3
  call void @slurm_xfree(ptr noundef %90)
  %91 = load i32, ptr %5, align 4
  %92 = zext i32 %91 to i64
  %93 = getelementptr inbounds nuw [9 x %struct.xcgroup_t], ptr @int_cg, i64 0, i64 %92
  %94 = load ptr, ptr %6, align 8
  %95 = getelementptr inbounds nuw %struct.cgroup_limits_t, ptr %94, i32 0, i32 3
  %96 = load ptr, ptr %6, align 8
  %97 = getelementptr inbounds nuw %struct.cgroup_limits_t, ptr %96, i32 0, i32 5
  %98 = call i32 @common_cgroup_get_param(ptr noundef %93, ptr noundef @.str.56, ptr noundef %95, ptr noundef %97)
  %99 = icmp ne i32 %98, 0
  br i1 %99, label %100, label %101

100:                                              ; preds = %88
  br label %138

101:                                              ; preds = %88
  br label %102

102:                                              ; preds = %101, %82, %77
  %103 = load ptr, ptr %6, align 8
  %104 = getelementptr inbounds nuw %struct.cgroup_limits_t, ptr %103, i32 0, i32 4
  %105 = load i64, ptr %104, align 8
  %106 = icmp ugt i64 %105, 0
  br i1 %106, label %107, label %116

107:                                              ; preds = %102
  %108 = load ptr, ptr %6, align 8
  %109 = getelementptr inbounds nuw %struct.cgroup_limits_t, ptr %108, i32 0, i32 2
  %110 = load ptr, ptr %109, align 8
  %111 = load ptr, ptr %6, align 8
  %112 = getelementptr inbounds nuw %struct.cgroup_limits_t, ptr %111, i32 0, i32 4
  %113 = load i64, ptr %112, align 8
  %114 = sub i64 %113, 1
  %115 = getelementptr inbounds nuw i8, ptr %110, i64 %114
  store i8 0, ptr %115, align 1
  br label %116

116:                                              ; preds = %107, %102
  %117 = load ptr, ptr %6, align 8
  %118 = getelementptr inbounds nuw %struct.cgroup_limits_t, ptr %117, i32 0, i32 5
  %119 = load i64, ptr %118, align 8
  %120 = icmp ugt i64 %119, 0
  br i1 %120, label %121, label %130

121:                                              ; preds = %116
  %122 = load ptr, ptr %6, align 8
  %123 = getelementptr inbounds nuw %struct.cgroup_limits_t, ptr %122, i32 0, i32 3
  %124 = load ptr, ptr %123, align 8
  %125 = load ptr, ptr %6, align 8
  %126 = getelementptr inbounds nuw %struct.cgroup_limits_t, ptr %125, i32 0, i32 5
  %127 = load i64, ptr %126, align 8
  %128 = sub i64 %127, 1
  %129 = getelementptr inbounds nuw i8, ptr %124, i64 %128
  store i8 0, ptr %129, align 1
  br label %130

130:                                              ; preds = %121, %116
  br label %136

131:                                              ; preds = %25
  br label %138

132:                                              ; preds = %25
  br label %138

133:                                              ; preds = %25
  %134 = load i32, ptr %4, align 4
  %135 = call i32 (ptr, ...) @error(ptr noundef @.str.48, i32 noundef %134)
  br label %138

136:                                              ; preds = %130
  %137 = load ptr, ptr %6, align 8
  store ptr %137, ptr %3, align 8
  store i32 1, ptr %7, align 4
  br label %155

138:                                              ; preds = %133, %132, %131, %100, %76, %64, %40, %29
  br label %139

139:                                              ; preds = %138
  %140 = load i64, ptr getelementptr inbounds nuw (%struct.slurm_conf_t, ptr @slurm_conf, i32 0, i32 42), align 8
  %141 = and i64 %140, 36028797018963968
  %142 = icmp ne i64 %141, 0
  br i1 %142, label %143, label %151

143:                                              ; preds = %139
  br label %144

144:                                              ; preds = %143
  %145 = call i32 @get_log_level()
  %146 = icmp sge i32 %145, 4
  br i1 %146, label %147, label %148

147:                                              ; preds = %144
  call void (i32, ptr, ...) @log_var(i32 noundef 4, ptr noundef @.str.57, ptr noundef @plugin_type, ptr noundef @__func__.cgroup_p_constrain_get)
  br label %148

148:                                              ; preds = %147, %144
  br label %149

149:                                              ; preds = %148
  br label %150

150:                                              ; preds = %149
  br label %151

151:                                              ; preds = %150, %139
  br label %152

152:                                              ; preds = %151
  br label %153

153:                                              ; preds = %152
  %154 = load ptr, ptr %6, align 8
  call void @cgroup_free_limits(ptr noundef %154)
  store ptr null, ptr %3, align 8
  store i32 1, ptr %7, align 4
  br label %155

155:                                              ; preds = %153, %136, %10
  call void @llvm.lifetime.end.p0(i64 8, ptr %6) #10
  %156 = load ptr, ptr %3, align 8
  ret ptr %156
}