; Function Attrs: nounwind uwtable
define dso_local noundef ptr @cgroup_p_constrain_get(i32 noundef %0, i32 noundef %1) local_unnamed_addr #0 {
  %3 = icmp eq i32 %1, 2
  br i1 %3, label %4, label %6

4:                                                ; preds = %2
  %5 = tail call i32 (ptr, ...) @error(ptr noundef nonnull @.str.52, i32 noundef 2) #17
  br label %59

6:                                                ; preds = %2
  %7 = tail call ptr @slurm_xcalloc(i64 noundef 1, i64 noundef 96, i1 noundef zeroext true, i1 noundef zeroext false, ptr noundef nonnull @.str.53, i32 noundef 2280, ptr noundef nonnull @__func__.cgroup_p_constrain_get) #17
  tail call void @cgroup_init_limits(ptr noundef %7) #17
  switch i32 %0, label %49 [
    i32 0, label %51
    i32 1, label %8
    i32 2, label %51
    i32 3, label %51
  ]

8:                                                ; preds = %6
  %9 = icmp eq i32 %1, 1
  %spec.store.select = select i1 %9, i32 0, i32 %1
  %10 = icmp eq i32 %spec.store.select, 4
  %spec.store.select2 = select i1 %10, i32 6, i32 %spec.store.select
  %11 = icmp eq i32 %spec.store.select2, 8
  %spec.store.select1 = select i1 %11, i32 0, i32 %spec.store.select2
  %12 = zext i32 %spec.store.select1 to i64
  %13 = getelementptr inbounds nuw [9 x %struct.xcgroup_t], ptr @int_cg, i64 0, i64 %12
  %14 = getelementptr inbounds nuw i8, ptr %7, i64 16
  %15 = getelementptr inbounds nuw i8, ptr %7, i64 32
  %16 = tail call i32 @common_cgroup_get_param(ptr noundef nonnull %13, ptr noundef nonnull @.str.38, ptr noundef nonnull %14, ptr noundef nonnull %15) #17
  %.not = icmp eq i32 %16, 0
  br i1 %.not, label %17, label %51

17:                                               ; preds = %8
  %18 = load i64, ptr %15, align 8
  %19 = icmp eq i64 %18, 1
  br i1 %19, label %20, label %25

20:                                               ; preds = %17
  %21 = load ptr, ptr %14, align 8
  %22 = tail call i32 @xstrcmp(ptr noundef %21, ptr noundef nonnull @.str.54) #17
  %.not39 = icmp eq i32 %22, 0
  br i1 %.not39, label %23, label %25

23:                                               ; preds = %20
  tail call void @slurm_xfree(ptr noundef nonnull %14) #17
  %24 = tail call i32 @common_cgroup_get_param(ptr noundef nonnull %13, ptr noundef nonnull @.str.55, ptr noundef nonnull %14, ptr noundef nonnull %15) #17
  %.not40 = icmp eq i32 %24, 0
  br i1 %.not40, label %25, label %51

25:                                               ; preds = %23, %20, %17
  %26 = getelementptr inbounds nuw i8, ptr %7, i64 24
  %27 = getelementptr inbounds nuw i8, ptr %7, i64 40
  %28 = tail call i32 @common_cgroup_get_param(ptr noundef nonnull %13, ptr noundef nonnull @.str.39, ptr noundef nonnull %26, ptr noundef nonnull %27) #17
  %.not41 = icmp eq i32 %28, 0
  br i1 %.not41, label %29, label %51

29:                                               ; preds = %25
  %30 = load i64, ptr %27, align 8
  %31 = icmp eq i64 %30, 1
  br i1 %31, label %32, label %37

32:                                               ; preds = %29
  %33 = load ptr, ptr %26, align 8
  %34 = tail call i32 @xstrcmp(ptr noundef %33, ptr noundef nonnull @.str.54) #17
  %.not42 = icmp eq i32 %34, 0
  br i1 %.not42, label %35, label %37

35:                                               ; preds = %32
  tail call void @slurm_xfree(ptr noundef nonnull %26) #17
  %36 = tail call i32 @common_cgroup_get_param(ptr noundef nonnull %13, ptr noundef nonnull @.str.56, ptr noundef nonnull %26, ptr noundef nonnull %27) #17
  %.not43 = icmp eq i32 %36, 0
  br i1 %.not43, label %37, label %51

37:                                               ; preds = %35, %32, %29
  %38 = load i64, ptr %15, align 8
  %.not44 = icmp eq i64 %38, 0
  br i1 %.not44, label %43, label %39

39:                                               ; preds = %37
  %40 = load ptr, ptr %14, align 8
  %41 = getelementptr i8, ptr %40, i64 %38
  %42 = getelementptr i8, ptr %41, i64 -1
  store i8 0, ptr %42, align 1
  br label %43

43:                                               ; preds = %39, %37
  %44 = load i64, ptr %27, align 8
  %.not45 = icmp eq i64 %44, 0
  br i1 %.not45, label %59, label %45

45:                                               ; preds = %43
  %46 = load ptr, ptr %26, align 8
  %47 = getelementptr i8, ptr %46, i64 %44
  %48 = getelementptr i8, ptr %47, i64 -1
  store i8 0, ptr %48, align 1
  br label %59

49:                                               ; preds = %6
  %50 = tail call i32 (ptr, ...) @error(ptr noundef nonnull @.str.48, i32 noundef %0) #17
  br label %51

51:                                               ; preds = %49, %6, %8, %23, %25, %35, %6, %6
  %52 = load i64, ptr getelementptr inbounds nuw (i8, ptr @slurm_conf, i64 320), align 8
  %53 = and i64 %52, 36028797018963968
  %.not46 = icmp eq i64 %53, 0
  br i1 %.not46, label %58, label %54

54:                                               ; preds = %51
  %55 = tail call i32 @get_log_level() #17
  %56 = icmp sgt i32 %55, 3
  br i1 %56, label %57, label %58

57:                                               ; preds = %54
  tail call void (i32, ptr, ...) @log_var(i32 noundef 4, ptr noundef nonnull @.str.57, ptr noundef nonnull @plugin_type, ptr noundef nonnull @__func__.cgroup_p_constrain_get) #17
  br label %58

58:                                               ; preds = %54, %57, %51
  tail call void @cgroup_free_limits(ptr noundef %7) #17
  br label %59

59:                                               ; preds = %45, %43, %58, %4
  %.0 = phi ptr [ null, %4 ], [ null, %58 ], [ %7, %43 ], [ %7, %45 ]
  ret ptr %.0
}